; ModuleID = '20/974.c'
source_filename = "20/974.c"
target datalayout = "e-m:e-p270:32:32-p271:32:32-p272:64:64-i64:64-f80:128-n8:16:32:64-S128"
target triple = "x86_64-pc-linux-gnu"

@.str = private unnamed_addr constant [5 x i8] c"%s%s\00", align 1
@.str.1 = private unnamed_addr constant [4 x i8] c"%s\0A\00", align 1

; Function Attrs: noinline nounwind uwtable
define dso_local i32 @main() #0 {
  %1 = alloca i32, align 4
  %2 = alloca [11 x i8], align 1
  %3 = alloca [4 x i8], align 1
  %4 = alloca [15 x i8], align 1
  %5 = alloca i32, align 4
  %6 = alloca i32, align 4
  %7 = alloca i32, align 4
  %8 = alloca i32, align 4
  store i32 0, i32* %1, align 4
  br label %9

9:                                                ; preds = %0, %104
  store i32 0, i32* %5, align 4
  %10 = getelementptr inbounds [11 x i8], [11 x i8]* %2, i64 0, i64 0
  %11 = getelementptr inbounds [4 x i8], [4 x i8]* %3, i64 0, i64 0
  %12 = call i32 (i8*, ...) @__isoc99_scanf(i8* getelementptr inbounds ([5 x i8], [5 x i8]* @.str, i64 0, i64 0), i8* %10, i8* %11)
  %13 = icmp eq i32 %12, -1
  br i1 %13, label %14, label %15

14:                                               ; preds = %9
  br label %110

15:                                               ; preds = %9
  store i32 0, i32* %7, align 4
  br label %16

16:                                               ; preds = %38, %15
  %17 = load i32, i32* %7, align 4
  %18 = sext i32 %17 to i64
  %19 = getelementptr inbounds [11 x i8], [11 x i8]* %2, i64 0, i64 0
  %20 = call i64 @strlen(i8* %19) #4
  %21 = icmp ult i64 %18, %20
  br i1 %21, label %22, label %41

22:                                               ; preds = %16
  %23 = load i32, i32* %7, align 4
  %24 = sext i32 %23 to i64
  %25 = getelementptr inbounds [11 x i8], [11 x i8]* %2, i64 0, i64 %24
  %26 = load i8, i8* %25, align 1
  %27 = sext i8 %26 to i32
  %28 = load i32, i32* %5, align 4
  %29 = icmp sgt i32 %27, %28
  br i1 %29, label %30, label %37

30:                                               ; preds = %22
  %31 = load i32, i32* %7, align 4
  %32 = sext i32 %31 to i64
  %33 = getelementptr inbounds [11 x i8], [11 x i8]* %2, i64 0, i64 %32
  %34 = load i8, i8* %33, align 1
  %35 = sext i8 %34 to i32
  store i32 %35, i32* %5, align 4
  %36 = load i32, i32* %7, align 4
  store i32 %36, i32* %6, align 4
  br label %37

37:                                               ; preds = %30, %22
  br label %38

38:                                               ; preds = %37
  %39 = load i32, i32* %7, align 4
  %40 = add nsw i32 %39, 1
  store i32 %40, i32* %7, align 4
  br label %16

41:                                               ; preds = %16
  %42 = getelementptr inbounds [15 x i8], [15 x i8]* %4, i64 0, i64 0
  %43 = getelementptr inbounds [11 x i8], [11 x i8]* %2, i64 0, i64 0
  %44 = load i32, i32* %6, align 4
  %45 = add nsw i32 %44, 1
  %46 = sext i32 %45 to i64
  %47 = call i8* @strncpy(i8* %42, i8* %43, i64 %46) #5
  %48 = load i32, i32* %6, align 4
  %49 = add nsw i32 %48, 1
  store i32 %49, i32* %8, align 4
  br label %50

50:                                               ; preds = %70, %41
  %51 = load i32, i32* %8, align 4
  %52 = sext i32 %51 to i64
  %53 = load i32, i32* %6, align 4
  %54 = sext i32 %53 to i64
  %55 = getelementptr inbounds [4 x i8], [4 x i8]* %3, i64 0, i64 0
  %56 = call i64 @strlen(i8* %55) #4
  %57 = add i64 %54, %56
  %58 = icmp ule i64 %52, %57
  br i1 %58, label %59, label %73

59:                                               ; preds = %50
  %60 = load i32, i32* %8, align 4
  %61 = load i32, i32* %6, align 4
  %62 = sub nsw i32 %60, %61
  %63 = sub nsw i32 %62, 1
  %64 = sext i32 %63 to i64
  %65 = getelementptr inbounds [4 x i8], [4 x i8]* %3, i64 0, i64 %64
  %66 = load i8, i8* %65, align 1
  %67 = load i32, i32* %8, align 4
  %68 = sext i32 %67 to i64
  %69 = getelementptr inbounds [15 x i8], [15 x i8]* %4, i64 0, i64 %68
  store i8 %66, i8* %69, align 1
  br label %70

70:                                               ; preds = %59
  %71 = load i32, i32* %8, align 4
  %72 = add nsw i32 %71, 1
  store i32 %72, i32* %8, align 4
  br label %50

73:                                               ; preds = %50
  %74 = load i32, i32* %6, align 4
  %75 = sext i32 %74 to i64
  %76 = getelementptr inbounds [4 x i8], [4 x i8]* %3, i64 0, i64 0
  %77 = call i64 @strlen(i8* %76) #4
  %78 = add i64 %75, %77
  %79 = add i64 %78, 1
  %80 = trunc i64 %79 to i32
  store i32 %80, i32* %8, align 4
  br label %81

81:                                               ; preds = %101, %73
  %82 = load i32, i32* %8, align 4
  %83 = sext i32 %82 to i64
  %84 = getelementptr inbounds [4 x i8], [4 x i8]* %3, i64 0, i64 0
  %85 = call i64 @strlen(i8* %84) #4
  %86 = getelementptr inbounds [11 x i8], [11 x i8]* %2, i64 0, i64 0
  %87 = call i64 @strlen(i8* %86) #4
  %88 = add i64 %85, %87
  %89 = icmp ult i64 %83, %88
  br i1 %89, label %90, label %104

90:                                               ; preds = %81
  %91 = load i32, i32* %8, align 4
  %92 = sext i32 %91 to i64
  %93 = getelementptr inbounds [4 x i8], [4 x i8]* %3, i64 0, i64 0
  %94 = call i64 @strlen(i8* %93) #4
  %95 = sub i64 %92, %94
  %96 = getelementptr inbounds [11 x i8], [11 x i8]* %2, i64 0, i64 %95
  %97 = load i8, i8* %96, align 1
  %98 = load i32, i32* %8, align 4
  %99 = sext i32 %98 to i64
  %100 = getelementptr inbounds [15 x i8], [15 x i8]* %4, i64 0, i64 %99
  store i8 %97, i8* %100, align 1
  br label %101

101:                                              ; preds = %90
  %102 = load i32, i32* %8, align 4
  %103 = add nsw i32 %102, 1
  store i32 %103, i32* %8, align 4
  br label %81

104:                                              ; preds = %81
  %105 = load i32, i32* %8, align 4
  %106 = sext i32 %105 to i64
  %107 = getelementptr inbounds [15 x i8], [15 x i8]* %4, i64 0, i64 %106
  store i8 0, i8* %107, align 1
  %108 = getelementptr inbounds [15 x i8], [15 x i8]* %4, i64 0, i64 0
  %109 = call i32 (i8*, ...) @printf(i8* getelementptr inbounds ([4 x i8], [4 x i8]* @.str.1, i64 0, i64 0), i8* %108)
  br label %9

110:                                              ; preds = %14
  ret i32 0
}

declare dso_local i32 @__isoc99_scanf(i8*, ...) #1

; Function Attrs: nounwind readonly
declare dso_local i64 @strlen(i8*) #2

; Function Attrs: nounwind
declare dso_local i8* @strncpy(i8*, i8*, i64) #3

declare dso_local i32 @printf(i8*, ...) #1


!llvm.module.flags = !{!0}
!llvm.ident = !{!1}

!0 = !{i32 1, !"wchar_size", i32 4}
!1 = !{!"clang version 10.0.0-4ubuntu1 "}
